; Function Attrs: mustprogress uwtable
define ptr @uldn_getLocale_77(ptr noundef %0) local_unnamed_addr #1 {
  %.not = icmp eq ptr %0, null
  br i1 %.not, label %9, label %2

2:                                                ; preds = %1
  %3 = load ptr, ptr %0, align 8, !tbaa !21
  %4 = getelementptr inbounds nuw i8, ptr %3, i64 24
  %5 = load ptr, ptr %4, align 8
  %6 = tail call noundef nonnull align 8 dereferenceable(217) ptr %5(ptr noundef nonnull align 8 dereferenceable(8) %0)
  %7 = getelementptr inbounds nuw i8, ptr %6, i64 40
  %8 = load ptr, ptr %7, align 8, !tbaa !19
  br label %9

9:                                                ; preds = %1, %2
  %.0 = phi ptr [ %8, %2 ], [ null, %1 ]
  ret ptr %.0
}